; Function Attrs: nofree norecurse nosync nounwind memory(write, argmem: readwrite, inaccessiblemem: none) uwtable
define noundef ptr @Gia_ManFraigMarkCis(ptr noundef readonly captures(none) %0, ptr noundef %1, i32 noundef %2) local_unnamed_addr #5 {
  %.0.val6 = load i64, ptr %1, align 4
  %4 = and i64 %.0.val6, 2684354559
  %narrow.i.not7 = icmp eq i64 %4, 2684354559
  br i1 %narrow.i.not7, label %.lr.ph, label %._crit_edge

.lr.ph:                                           ; preds = %3
  %.not5 = icmp eq i32 %2, 0
  br i1 %.not5, label %.lr.ph.split.us, label %.lr.ph.split

.lr.ph.split.us:                                  ; preds = %.lr.ph, %.lr.ph.split.us
  %.08.us = phi ptr [ %5, %.lr.ph.split.us ], [ %1, %.lr.ph ]
  %5 = getelementptr inbounds i8, ptr %.08.us, i64 -12
  %.0.val.us = load i64, ptr %5, align 4
  %6 = and i64 %.0.val.us, 2684354559
  %narrow.i.not.us = icmp eq i64 %6, 2684354559
  br i1 %narrow.i.not.us, label %.lr.ph.split.us, label %._crit_edge, !llvm.loop !64

.lr.ph.split:                                     ; preds = %.lr.ph
  %7 = getelementptr inbounds nuw i8, ptr %0, i64 176
  %8 = getelementptr i8, ptr %0, i64 32
  %9 = getelementptr inbounds nuw i8, ptr %0, i64 616
  %10 = load ptr, ptr %9, align 8, !tbaa !3
  %.val.i = load ptr, ptr %8, align 8, !tbaa !28
  %11 = ptrtoint ptr %.val.i to i64
  %.pre = load i32, ptr %7, align 8, !tbaa !30
  br label %12

12:                                               ; preds = %.lr.ph.split, %12
  %.08 = phi ptr [ %1, %.lr.ph.split ], [ %18, %12 ]
  %13 = ptrtoint ptr %.08 to i64
  %14 = sub i64 %13, %11
  %15 = sdiv exact i64 %14, 12
  %sext.i = shl i64 %15, 32
  %16 = ashr exact i64 %sext.i, 30
  %17 = getelementptr inbounds i8, ptr %10, i64 %16
  store i32 %.pre, ptr %17, align 4, !tbaa !29
  %18 = getelementptr inbounds i8, ptr %.08, i64 -12
  %.0.val = load i64, ptr %18, align 4
  %19 = and i64 %.0.val, 2684354559
  %narrow.i.not = icmp eq i64 %19, 2684354559
  br i1 %narrow.i.not, label %12, label %._crit_edge, !llvm.loop !64

._crit_edge:                                      ; preds = %12, %.lr.ph.split.us, %3
  %.0.lcssa = phi ptr [ %1, %3 ], [ %5, %.lr.ph.split.us ], [ %18, %12 ]
  ret ptr %.0.lcssa
}